target datalayout = "e-m:e-p270:32:32-p271:32:32-p272:64:64-i64:64-i128:128-f80:128-n8:16:32:64-S128"
target triple = "x86_64-unknown-linux-gnu"

; Function Attrs: mustprogress nounwind uwtable
define internal noundef signext i8 @_ZL9U_FAILURE10UErrorCode(i32 noundef %code) #1 {
entry:
  %code.addr = alloca i32, align 4
  store i32 %code, ptr %code.addr, align 4
  %0 = load i32, ptr %code.addr, align 4
  %cmp = icmp sgt i32 %0, 0
  %conv = zext i1 %cmp to i8
  ret i8 %conv
}

; Function Attrs: mustprogress uwtable
define ptr @uspoof_clone_75(ptr noundef %sc, ptr noundef %status) #0 personality ptr @__gxx_personality_v0 {
entry:
  %retval = alloca ptr, align 8
  %sc.addr = alloca ptr, align 8
  %status.addr = alloca ptr, align 8
  %src = alloca ptr, align 8
  %result = alloca ptr, align 8
  %saved-rvalue = alloca ptr, align 8
  %cleanup.cond = alloca i1, align 1
  %exn.slot = alloca ptr, align 8
  %ehselector.slot = alloca i32, align 4
  store ptr %sc, ptr %sc.addr, align 8
  store ptr %status, ptr %status.addr, align 8
  %0 = load ptr, ptr %sc.addr, align 8
  %1 = load ptr, ptr %status.addr, align 8
  %call = call noundef ptr @_ZN6icu_759SpoofImpl12validateThisEPK13USpoofCheckerR10UErrorCode(ptr noundef %0, ptr noundef nonnull align 4 dereferenceable(4) %1)
  store ptr %call, ptr %src, align 8
  %2 = load ptr, ptr %src, align 8
  %cmp = icmp eq ptr %2, null
  br i1 %cmp, label %if.then, label %if.end

if.then:                                          ; preds = %entry
  store ptr null, ptr %retval, align 8
  br label %return

if.end:                                           ; preds = %entry
  %call1 = call noundef ptr @_ZN6icu_757UMemorynwEm(i64 noundef 48) #6
  %new.isnull = icmp eq ptr %call1, null
  store i1 false, ptr %cleanup.cond, align 1
  br i1 %new.isnull, label %new.cont, label %new.notnull

new.notnull:                                      ; preds = %if.end
  store ptr %call1, ptr %saved-rvalue, align 8
  store i1 true, ptr %cleanup.cond, align 1
  %3 = load ptr, ptr %src, align 8
  %4 = load ptr, ptr %status.addr, align 8
  invoke void @_ZN6icu_759SpoofImplC1ERKS0_R10UErrorCode(ptr noundef nonnull align 8 dereferenceable(44) %call1, ptr noundef nonnull align 8 dereferenceable(44) %3, ptr noundef nonnull align 4 dereferenceable(4) %4)
          to label %invoke.cont unwind label %lpad

invoke.cont:                                      ; preds = %new.notnull
  br label %new.cont

new.cont:                                         ; preds = %invoke.cont, %if.end
  %5 = phi ptr [ %call1, %invoke.cont ], [ null, %if.end ]
  store ptr %5, ptr %result, align 8
  %6 = load ptr, ptr %result, align 8
  %cmp2 = icmp eq ptr %6, null
  br i1 %cmp2, label %if.then3, label %if.end4

if.then3:                                         ; preds = %new.cont
  %7 = load ptr, ptr %status.addr, align 8
  store i32 7, ptr %7, align 4
  store ptr null, ptr %retval, align 8
  br label %return

lpad:                                             ; preds = %new.notnull
  %8 = landingpad { ptr, i32 }
          cleanup
  %9 = extractvalue { ptr, i32 } %8, 0
  store ptr %9, ptr %exn.slot, align 8
  %10 = extractvalue { ptr, i32 } %8, 1
  store i32 %10, ptr %ehselector.slot, align 4
  %cleanup.is_active = load i1, ptr %cleanup.cond, align 1
  br i1 %cleanup.is_active, label %cleanup.action, label %cleanup.done

cleanup.action:                                   ; preds = %lpad
  %11 = load ptr, ptr %saved-rvalue, align 8
  call void @_ZN6icu_757UMemorydlEPv(ptr noundef %11) #6
  br label %cleanup.done

cleanup.done:                                     ; preds = %cleanup.action, %lpad
  br label %eh.resume

if.end4:                                          ; preds = %new.cont
  %12 = load ptr, ptr %status.addr, align 8
  %13 = load i32, ptr %12, align 4
  %call5 = call noundef signext i8 @_ZL9U_FAILURE10UErrorCode(i32 noundef %13)
  %tobool = icmp ne i8 %call5, 0
  br i1 %tobool, label %if.then6, label %if.end7

if.then6:                                         ; preds = %if.end4
  %14 = load ptr, ptr %result, align 8
  %isnull = icmp eq ptr %14, null
  br i1 %isnull, label %delete.end, label %delete.notnull

delete.notnull:                                   ; preds = %if.then6
  %vtable = load ptr, ptr %14, align 8
  %vfn = getelementptr inbounds ptr, ptr %vtable, i64 1
  %15 = load ptr, ptr %vfn, align 8
  call void %15(ptr noundef nonnull align 8 dereferenceable(44) %14) #6
  br label %delete.end

delete.end:                                       ; preds = %delete.notnull, %if.then6
  store ptr null, ptr %result, align 8
  br label %if.end7

if.end7:                                          ; preds = %delete.end, %if.end4
  %16 = load ptr, ptr %result, align 8
  %call8 = call noundef ptr @_ZN6icu_759SpoofImpl15asUSpoofCheckerEv(ptr noundef nonnull align 8 dereferenceable(44) %16)
  store ptr %call8, ptr %retval, align 8
  br label %return

return:                                           ; preds = %if.end7, %if.then3, %if.then
  %17 = load ptr, ptr %retval, align 8
  ret ptr %17

eh.resume:                                        ; preds = %cleanup.done
  %exn = load ptr, ptr %exn.slot, align 8
  %sel = load i32, ptr %ehselector.slot, align 4
  %lpad.val = insertvalue { ptr, i32 } poison, ptr %exn, 0
  %lpad.val9 = insertvalue { ptr, i32 } %lpad.val, i32 %sel, 1
  resume { ptr, i32 } %lpad.val9
}