; Function Attrs: mustprogress uwtable
define noundef ptr @uspoof_clone_75(ptr noundef %sc, ptr noundef nonnull %status) local_unnamed_addr #0 personality ptr @__gxx_personality_v0 {
entry:
  %call = tail call noundef ptr @_ZN6icu_759SpoofImpl12validateThisEPK13USpoofCheckerR10UErrorCode(ptr noundef %sc, ptr noundef nonnull align 4 dereferenceable(4) %status)
  %cmp = icmp eq ptr %call, null
  br i1 %cmp, label %return, label %if.end

if.end:                                           ; preds = %entry
  %call1 = tail call noundef ptr @_ZN6icu_757UMemorynwEm(i64 noundef 48) #6
  %new.isnull = icmp eq ptr %call1, null
  br i1 %new.isnull, label %if.then3, label %new.notnull

new.notnull:                                      ; preds = %if.end
  invoke void @_ZN6icu_759SpoofImplC1ERKS0_R10UErrorCode(ptr noundef nonnull align 8 dereferenceable(44) %call1, ptr noundef nonnull align 8 dereferenceable(44) %call, ptr noundef nonnull align 4 dereferenceable(4) %status)
          to label %if.end4 unwind label %lpad

if.then3:                                         ; preds = %if.end
  store i32 7, ptr %status, align 4
  br label %return

lpad:                                             ; preds = %new.notnull
  %0 = landingpad { ptr, i32 }
          cleanup
  tail call void @_ZN6icu_757UMemorydlEPv(ptr noundef nonnull %call1) #6
  resume { ptr, i32 } %0

if.end4:                                          ; preds = %new.notnull
  %1 = load i32, ptr %status, align 4
  %cmp.i = icmp slt i32 %1, 1
  br i1 %cmp.i, label %if.end7, label %delete.notnull

delete.notnull:                                   ; preds = %if.end4
  %vtable = load ptr, ptr %call1, align 8
  %vfn = getelementptr inbounds i8, ptr %vtable, i64 8
  %2 = load ptr, ptr %vfn, align 8
  tail call void %2(ptr noundef nonnull align 8 dereferenceable(44) %call1) #6
  unreachable

if.end7:                                          ; preds = %if.end4
  %call8 = tail call noundef ptr @_ZN6icu_759SpoofImpl15asUSpoofCheckerEv(ptr noundef nonnull align 8 dereferenceable(44) %call1)
  br label %return

return:                                           ; preds = %entry, %if.end7, %if.then3
  %retval.0 = phi ptr [ null, %if.then3 ], [ %call8, %if.end7 ], [ null, %entry ]
  ret ptr %retval.0
}